; Function Attrs: nounwind uwtable
define ptr @Abc_NtkCovDeriveInv(ptr noundef %0, ptr noundef readonly captures(none) %1, i32 noundef %2) local_unnamed_addr #0 {
  %.not = icmp eq i32 %2, 0
  br i1 %.not, label %14, label %4

4:                                                ; preds = %3
  %5 = getelementptr inbounds nuw i8, ptr %1, i64 64
  %6 = load ptr, ptr %5, align 8, !tbaa !34
  %7 = getelementptr inbounds nuw i8, ptr %6, i64 64
  %8 = load ptr, ptr %7, align 8, !tbaa !34
  %9 = icmp eq ptr %8, null
  br i1 %9, label %10, label %14

10:                                               ; preds = %4
  %11 = tail call ptr @Abc_NtkCreateNodeInv(ptr noundef %0, ptr noundef nonnull %6) #7
  %12 = load ptr, ptr %5, align 8, !tbaa !34
  %13 = getelementptr inbounds nuw i8, ptr %12, i64 64
  store ptr %11, ptr %13, align 8, !tbaa !34
  %.pre = load ptr, ptr %5, align 8, !tbaa !34
  br label %14

14:                                               ; preds = %4, %10, %3
  %.pn = phi ptr [ %1, %3 ], [ %.pre, %10 ], [ %6, %4 ]
  %.0.in = getelementptr inbounds nuw i8, ptr %.pn, i64 64
  %.0 = load ptr, ptr %.0.in, align 8, !tbaa !34
  ret ptr %.0
}